; Function Attrs: mustprogress uwtable
define hidden void @_ZN8reslimit9pop_childEv(ptr noundef nonnull align 8 captures(none) dereferenceable(40) %0) local_unnamed_addr #3 align 2 personality ptr @__gxx_personality_v0 {
  %2 = load ptr, ptr @_ZL12g_rlimit_mux, align 8, !tbaa !3
  %3 = tail call noundef i32 @pthread_mutex_lock(ptr noundef nonnull align 8 dereferenceable(40) %2) #23
  %.not.i.i = icmp eq i32 %3, 0
  br i1 %.not.i.i, label %_ZNSt10lock_guardISt5mutexEC2ERS0_.exit, label %4

4:                                                ; preds = %1
  tail call void @_ZSt20__throw_system_errori(i32 noundef %3) #24
  unreachable

_ZNSt10lock_guardISt5mutexEC2ERS0_.exit:          ; preds = %1
  %5 = getelementptr inbounds nuw i8, ptr %0, i64 32
  %6 = load ptr, ptr %5, align 8, !tbaa !30
  %7 = icmp eq ptr %6, null
  br i1 %7, label %_ZNSt10lock_guardISt5mutexEC2ERS0_.exit._crit_edge, label %8

_ZNSt10lock_guardISt5mutexEC2ERS0_.exit._crit_edge: ; preds = %_ZNSt10lock_guardISt5mutexEC2ERS0_.exit
  %.pre = load i32, ptr inttoptr (i64 -4 to ptr), align 4, !tbaa !28
  %.pre5 = add i32 %.pre, -1
  %.pre6 = zext i32 %.pre5 to i64
  br label %13

8:                                                ; preds = %_ZNSt10lock_guardISt5mutexEC2ERS0_.exit
  %9 = getelementptr inbounds i8, ptr %6, i64 -4
  %10 = load i32, ptr %9, align 4, !tbaa !28
  %11 = add i32 %10, -1
  %12 = zext i32 %11 to i64
  br label %13

13:                                               ; preds = %_ZNSt10lock_guardISt5mutexEC2ERS0_.exit._crit_edge, %8
  %.pre-phi7 = phi i64 [ %.pre6, %_ZNSt10lock_guardISt5mutexEC2ERS0_.exit._crit_edge ], [ %12, %8 ]
  %.pre-phi = phi i32 [ %.pre5, %_ZNSt10lock_guardISt5mutexEC2ERS0_.exit._crit_edge ], [ %11, %8 ]
  %.0.i.i = phi i64 [ 4294967295, %_ZNSt10lock_guardISt5mutexEC2ERS0_.exit._crit_edge ], [ %12, %8 ]
  %14 = getelementptr inbounds nuw ptr, ptr %6, i64 %.0.i.i
  %15 = load ptr, ptr %14, align 8, !tbaa !31
  %16 = getelementptr inbounds nuw i8, ptr %15, i64 8
  %17 = load i64, ptr %16, align 8, !tbaa !23
  %18 = getelementptr inbounds nuw i8, ptr %0, i64 8
  %19 = load i64, ptr %18, align 8, !tbaa !23
  %20 = add i64 %19, %17
  store i64 %20, ptr %18, align 8, !tbaa !23
  %21 = getelementptr inbounds i8, ptr %6, i64 -4
  %22 = getelementptr inbounds nuw ptr, ptr %6, i64 %.pre-phi7
  %23 = load ptr, ptr %22, align 8, !tbaa !31
  %24 = getelementptr inbounds nuw i8, ptr %23, i64 8
  store i64 0, ptr %24, align 8, !tbaa !23
  store i32 %.pre-phi, ptr %21, align 4, !tbaa !28
  %25 = tail call noundef i32 @pthread_mutex_unlock(ptr noundef nonnull align 8 dereferenceable(40) %2) #23
  ret void
}